; Function Attrs: nounwind uwtable
define internal fastcc i32 @condjump(ptr noundef captures(none) %0, i32 noundef range(i32 23, 28) %1, i32 noundef range(i32 0, 512) %2, i32 noundef %3, i32 noundef %4) unnamed_addr #0 {
  %6 = shl nuw nsw i32 %2, 6
  %7 = or disjoint i32 %6, %1
  %8 = shl i32 %3, 23
  %9 = or disjoint i32 %7, %8
  %10 = shl i32 %4, 14
  %11 = or i32 %9, %10
  %12 = getelementptr inbounds nuw i8, ptr %0, i64 24
  %13 = load ptr, ptr %12, align 8, !tbaa !30
  %14 = getelementptr inbounds nuw i8, ptr %13, i64 8
  %15 = load i32, ptr %14, align 8, !tbaa !31
  %16 = tail call fastcc i32 @luaK_code(ptr noundef %0, i32 noundef %11, i32 noundef %15)
  %17 = getelementptr inbounds nuw i8, ptr %0, i64 56
  %18 = load i32, ptr %17, align 8, !tbaa !36
  store i32 -1, ptr %17, align 8, !tbaa !36
  %19 = load ptr, ptr %12, align 8, !tbaa !30
  %20 = getelementptr inbounds nuw i8, ptr %19, i64 8
  %21 = load i32, ptr %20, align 8, !tbaa !31
  %22 = tail call fastcc i32 @luaK_code(ptr noundef %0, i32 noundef 2147450902, i32 noundef %21)
  %23 = icmp eq i32 %18, -1
  br i1 %23, label %luaK_jump.exit, label %24

24:                                               ; preds = %5
  %25 = icmp eq i32 %22, -1
  br i1 %25, label %luaK_jump.exit, label %.preheader.i.i

.preheader.i.i:                                   ; preds = %24
  %.val.i.i = load ptr, ptr %0, align 8, !tbaa !19
  %26 = getelementptr i8, ptr %.val.i.i, i64 24
  %.val.val.i.i = load ptr, ptr %26, align 8, !tbaa !20
  br label %27

27:                                               ; preds = %27, %.preheader.i.i
  %.0.i.i = phi i32 [ %35, %27 ], [ %22, %.preheader.i.i ]
  %28 = sext i32 %.0.i.i to i64
  %29 = getelementptr inbounds i32, ptr %.val.val.i.i, i64 %28
  %30 = load i32, ptr %29, align 4, !tbaa !29
  %31 = lshr i32 %30, 14
  %32 = add nsw i32 %31, -131071
  %33 = icmp eq i32 %32, -1
  %34 = add nuw nsw i32 %.0.i.i, 1
  %35 = add nsw i32 %34, %32
  %.not13.i.i = icmp eq i32 %35, -1
  %.not.i.i = select i1 %33, i1 true, i1 %.not13.i.i
  br i1 %.not.i.i, label %36, label %27, !llvm.loop !37

36:                                               ; preds = %27
  %37 = getelementptr inbounds i32, ptr %.val.val.i.i, i64 %28
  %.neg.i.i.i = xor i32 %.0.i.i, -1
  %38 = add i32 %18, %.neg.i.i.i
  %39 = tail call i32 @llvm.abs.i32(i32 %38, i1 true)
  %40 = icmp samesign ugt i32 %39, 131071
  br i1 %40, label %41, label %fixjump.exit.i.i

41:                                               ; preds = %36
  %42 = load ptr, ptr %12, align 8, !tbaa !30
  tail call void @luaX_syntaxerror(ptr noundef %42, ptr noundef nonnull @.str.1) #8
  %.pre.i.i = load i32, ptr %37, align 4, !tbaa !29
  br label %fixjump.exit.i.i

fixjump.exit.i.i:                                 ; preds = %41, %36
  %43 = phi i32 [ %30, %36 ], [ %.pre.i.i, %41 ]
  %44 = and i32 %43, 16383
  %45 = shl i32 %38, 14
  %46 = add i32 %45, 2147467264
  %47 = or disjoint i32 %44, %46
  store i32 %47, ptr %37, align 4, !tbaa !29
  br label %luaK_jump.exit

luaK_jump.exit:                                   ; preds = %5, %24, %fixjump.exit.i.i
  %.0.i = phi i32 [ %22, %5 ], [ %22, %fixjump.exit.i.i ], [ %18, %24 ]
  ret i32 %.0.i
}